; Function Attrs: nounwind sspstrong uwtable
define internal void @sdhci_sysbus_realize(ptr noundef %dev, ptr noundef %errp) #0 {
entry:
  %_auto_errp_prop = alloca %struct.ErrorPropagator, align 8
  store ptr null, ptr %_auto_errp_prop, align 8
  %errp1 = getelementptr inbounds nuw i8, ptr %_auto_errp_prop, i64 8
  store ptr %errp, ptr %errp1, align 8
  %tobool = icmp eq ptr %errp, null
  %cmp = icmp eq ptr %errp, @error_fatal
  %or.cond = or i1 %tobool, %cmp
  %spec.select = select i1 %or.cond, ptr %_auto_errp_prop, ptr %errp
  %call.i = tail call ptr @object_dynamic_cast_assert(ptr noundef %dev, ptr noundef nonnull @.str.151, ptr noundef nonnull @.str.153, i32 noundef 124, ptr noundef nonnull @__func__.SYSBUS_SDHCI) #12
  %call.i16 = tail call ptr @object_dynamic_cast_assert(ptr noundef %dev, ptr noundef nonnull @.str.152, ptr noundef nonnull @.str.164, i32 noundef 20, ptr noundef nonnull @__func__.SYS_BUS_DEVICE) #12
  call void @sdhci_common_realize(ptr noundef %call.i, ptr noundef %spec.select)
  %0 = load ptr, ptr %spec.select, align 8
  %tobool4.not = icmp eq ptr %0, null
  br i1 %tobool4.not, label %if.end6, label %cleanup

if.end6:                                          ; preds = %entry
  %dma_mr = getelementptr inbounds nuw i8, ptr %call.i, i64 3104
  %1 = load ptr, ptr %dma_mr, align 16
  %tobool7.not = icmp eq ptr %1, null
  br i1 %tobool7.not, label %if.else, label %if.then8

if.then8:                                         ; preds = %if.end6
  %sysbus_dma_as = getelementptr inbounds nuw i8, ptr %call.i, i64 3008
  %dma_as = getelementptr inbounds nuw i8, ptr %call.i, i64 3096
  store ptr %sysbus_dma_as, ptr %dma_as, align 8
  call void @address_space_init(ptr noundef nonnull %sysbus_dma_as, ptr noundef nonnull %1, ptr noundef nonnull @.str.163) #12
  br label %if.end12

if.else:                                          ; preds = %if.end6
  %dma_as11 = getelementptr inbounds nuw i8, ptr %call.i, i64 3096
  store ptr @address_space_memory, ptr %dma_as11, align 8
  br label %if.end12

if.end12:                                         ; preds = %if.else, %if.then8
  %irq = getelementptr inbounds nuw i8, ptr %call.i, i64 3136
  call void @sysbus_init_irq(ptr noundef %call.i16, ptr noundef nonnull %irq) #12
  %iomem = getelementptr inbounds nuw i8, ptr %call.i, i64 2736
  call void @sysbus_init_mmio(ptr noundef %call.i16, ptr noundef nonnull %iomem) #12
  br label %cleanup

cleanup:                                          ; preds = %entry, %if.end12
  %_auto_errp_prop.val = load ptr, ptr %_auto_errp_prop, align 8
  %_auto_errp_prop.val15 = load ptr, ptr %errp1, align 8
  call void @error_propagate(ptr noundef %_auto_errp_prop.val15, ptr noundef %_auto_errp_prop.val) #12
  ret void
}